target datalayout = "e-m:e-p270:32:32-p271:32:32-p272:64:64-i64:64-i128:128-f80:128-n8:16:32:64-S128"
target triple = "x86_64-pc-linux-gnu"

%struct._zend_fcall_info = type { i64, %struct._zval_struct, ptr, ptr, ptr, i32, ptr }
%struct._zend_fcall_info_cache = type { ptr, ptr, ptr, ptr, ptr }
%struct._zval_struct = type { %union._zend_value, %union.anon.3, %union.anon.6 }
%union._zend_value = type { i64 }
%union.anon.3 = type { i32 }
%union.anon.6 = type { i32 }
%struct._zend_refcounted_h = type { i32, %union.anon }
%union.anon = type { i32 }
%struct._user_tick_function_entry = type { %struct._zend_fcall_info, %struct._zend_fcall_info_cache, i8 }

; Function Attrs: nounwind uwtable
define internal void @fci_release(ptr noundef %0, ptr noundef %1) #0 {
  %3 = alloca ptr, align 8
  %4 = alloca ptr, align 8
  %5 = alloca ptr, align 8
  %6 = alloca ptr, align 8
  store ptr %0, ptr %5, align 8
  store ptr %1, ptr %6, align 8
  %7 = load ptr, ptr %5, align 8
  %8 = getelementptr inbounds %struct._zend_fcall_info, ptr %7, i32 0, i32 1
  call void @zval_ptr_dtor(ptr noundef %8)
  %9 = load ptr, ptr %6, align 8
  %10 = getelementptr inbounds %struct._zend_fcall_info_cache, ptr %9, i32 0, i32 3
  %11 = load ptr, ptr %10, align 8
  %12 = icmp ne ptr %11, null
  br i1 %12, label %13, label %37

13:                                               ; preds = %2
  %14 = load ptr, ptr %6, align 8
  %15 = getelementptr inbounds %struct._zend_fcall_info_cache, ptr %14, i32 0, i32 3
  %16 = load ptr, ptr %15, align 8
  store ptr %16, ptr %4, align 8
  %17 = load ptr, ptr %4, align 8
  store ptr %17, ptr %3, align 8
  %18 = load ptr, ptr %3, align 8
  %19 = load i32, ptr %18, align 4
  %20 = icmp ugt i32 %19, 0
  call void @llvm.assume(i1 %20)
  %21 = load ptr, ptr %3, align 8
  %22 = load i32, ptr %21, align 4
  %23 = add i32 %22, -1
  store i32 %23, ptr %21, align 4
  %24 = icmp eq i32 %23, 0
  br i1 %24, label %25, label %27

25:                                               ; preds = %13
  %26 = load ptr, ptr %4, align 8
  call void @zend_objects_store_del(ptr noundef %26) #12
  br label %36

27:                                               ; preds = %13
  %28 = load ptr, ptr %4, align 8
  %29 = getelementptr inbounds %struct._zend_refcounted_h, ptr %28, i32 0, i32 1
  %30 = load i32, ptr %29, align 4
  %31 = and i32 %30, -1008
  %32 = icmp eq i32 %31, 0
  br i1 %32, label %33, label %35

33:                                               ; preds = %27
  %34 = load ptr, ptr %4, align 8
  call void @gc_possible_root(ptr noundef %34) #12
  br label %35

35:                                               ; preds = %33, %27
  br label %36

36:                                               ; preds = %35, %25
  br label %37

37:                                               ; preds = %36, %2
  ret void
}

; Function Attrs: nounwind uwtable
define internal void @user_tick_function_dtor(ptr noundef %0) #0 {
  %2 = alloca ptr, align 8
  store ptr %0, ptr %2, align 8
  %3 = load ptr, ptr %2, align 8
  %4 = getelementptr inbounds %struct._user_tick_function_entry, ptr %3, i32 0, i32 0
  call void @zend_fcall_info_args_clear(ptr noundef %4, i1 noundef zeroext true)
  %5 = load ptr, ptr %2, align 8
  %6 = getelementptr inbounds %struct._user_tick_function_entry, ptr %5, i32 0, i32 0
  %7 = load ptr, ptr %2, align 8
  %8 = getelementptr inbounds %struct._user_tick_function_entry, ptr %7, i32 0, i32 1
  call void @fci_release(ptr noundef %6, ptr noundef %8)
  ret void
}