; Function Attrs: nounwind uwtable
define internal void @user_tick_function_dtor(ptr noundef %0) #0 {
  tail call void @zend_fcall_info_args_clear(ptr noundef %0, i1 noundef zeroext true) #18
  %2 = getelementptr inbounds i8, ptr %0, i64 8
  tail call void @zval_ptr_dtor(ptr noundef nonnull %2) #18
  %3 = getelementptr inbounds i8, ptr %0, i64 88
  %4 = load ptr, ptr %3, align 8
  %.not.i = icmp eq ptr %4, null
  br i1 %.not.i, label %fci_release.exit, label %5

5:                                                ; preds = %1
  %6 = load i32, ptr %4, align 4
  %7 = icmp ne i32 %6, 0
  tail call void @llvm.assume(i1 %7)
  %8 = add i32 %6, -1
  store i32 %8, ptr %4, align 4
  %9 = icmp eq i32 %8, 0
  br i1 %9, label %10, label %11

10:                                               ; preds = %5
  tail call void @zend_objects_store_del(ptr noundef nonnull %4) #18
  br label %fci_release.exit

11:                                               ; preds = %5
  %12 = getelementptr inbounds i8, ptr %4, i64 4
  %13 = load i32, ptr %12, align 4
  %14 = and i32 %13, -1008
  %15 = icmp eq i32 %14, 0
  br i1 %15, label %16, label %fci_release.exit

16:                                               ; preds = %11
  tail call void @gc_possible_root(ptr noundef nonnull %4) #18
  br label %fci_release.exit

fci_release.exit:                                 ; preds = %1, %10, %11, %16
  ret void
}